target datalayout = "e-m:e-p270:32:32-p271:32:32-p272:64:64-i64:64-i128:128-f80:128-n8:16:32:64-S128"
target triple = "x86_64-pc-linux-gnu"

%struct.pm_static_literals_metadata_t = type { ptr, i32, ptr }
%struct.pm_node = type { i16, i16, i32, %struct.pm_location_t }
%struct.pm_location_t = type { ptr, ptr }
%struct.pm_integer_node = type { %struct.pm_node, %struct.pm_integer_t }
%struct.pm_integer_t = type { i64, ptr, i32, i8 }
%struct.pm_line_column_t = type { i32, i32 }

; Function Attrs: nounwind sspstrong uwtable
define internal i64 @pm_int64_value(ptr noundef %0, ptr noundef %1) #0 {
  %3 = alloca i64, align 8
  %4 = alloca ptr, align 8
  %5 = alloca ptr, align 8
  %6 = alloca ptr, align 8
  %7 = alloca i32, align 4
  %8 = alloca i64, align 8
  %9 = alloca %struct.pm_line_column_t, align 4
  store ptr %0, ptr %4, align 8, !tbaa !7
  store ptr %1, ptr %5, align 8, !tbaa !13
  %10 = load ptr, ptr %5, align 8, !tbaa !13
  %11 = getelementptr inbounds nuw %struct.pm_node, ptr %10, i32 0, i32 0
  %12 = load i16, ptr %11, align 8, !tbaa !17
  %13 = zext i16 %12 to i32
  switch i32 %13, label %59 [
    i32 82, label %14
    i32 138, label %44
  ]

14:                                               ; preds = %2
  call void @llvm.lifetime.start.p0(i64 8, ptr %6) #9
  %15 = load ptr, ptr %5, align 8, !tbaa !13
  %16 = getelementptr inbounds nuw %struct.pm_integer_node, ptr %15, i32 0, i32 1
  store ptr %16, ptr %6, align 8, !tbaa !7
  %17 = load ptr, ptr %6, align 8, !tbaa !7
  %18 = getelementptr inbounds nuw %struct.pm_integer_t, ptr %17, i32 0, i32 1
  %19 = load ptr, ptr %18, align 8, !tbaa !73
  %20 = icmp ne ptr %19, null
  br i1 %20, label %21, label %27

21:                                               ; preds = %14
  %22 = load ptr, ptr %6, align 8, !tbaa !7
  %23 = getelementptr inbounds nuw %struct.pm_integer_t, ptr %22, i32 0, i32 3
  %24 = load i8, ptr %23, align 4, !tbaa !75, !range !26, !noundef !27
  %25 = trunc i8 %24 to i1
  %26 = select i1 %25, i64 -9223372036854775808, i64 9223372036854775807
  store i64 %26, ptr %3, align 8
  store i32 1, ptr %7, align 4
  br label %43

27:                                               ; preds = %14
  call void @llvm.lifetime.start.p0(i64 8, ptr %8) #9
  %28 = load ptr, ptr %6, align 8, !tbaa !7
  %29 = getelementptr inbounds nuw %struct.pm_integer_t, ptr %28, i32 0, i32 2
  %30 = load i32, ptr %29, align 8, !tbaa !78
  %31 = zext i32 %30 to i64
  store i64 %31, ptr %8, align 8, !tbaa !42
  %32 = load ptr, ptr %6, align 8, !tbaa !7
  %33 = getelementptr inbounds nuw %struct.pm_integer_t, ptr %32, i32 0, i32 3
  %34 = load i8, ptr %33, align 4, !tbaa !75, !range !26, !noundef !27
  %35 = trunc i8 %34 to i1
  br i1 %35, label %36, label %39

36:                                               ; preds = %27
  %37 = load i64, ptr %8, align 8, !tbaa !42
  %38 = sub i64 0, %37
  br label %41

39:                                               ; preds = %27
  %40 = load i64, ptr %8, align 8, !tbaa !42
  br label %41

41:                                               ; preds = %39, %36
  %42 = phi i64 [ %38, %36 ], [ %40, %39 ]
  store i64 %42, ptr %3, align 8
  store i32 1, ptr %7, align 4
  call void @llvm.lifetime.end.p0(i64 8, ptr %8) #9
  br label %43

43:                                               ; preds = %41, %21
  call void @llvm.lifetime.end.p0(i64 8, ptr %6) #9
  br label %60

44:                                               ; preds = %2
  %45 = load ptr, ptr %4, align 8, !tbaa !7
  %46 = getelementptr inbounds nuw %struct.pm_static_literals_metadata_t, ptr %45, i32 0, i32 0
  %47 = load ptr, ptr %46, align 8, !tbaa !22
  %48 = load ptr, ptr %5, align 8, !tbaa !13
  %49 = getelementptr inbounds nuw %struct.pm_node, ptr %48, i32 0, i32 3
  %50 = getelementptr inbounds nuw %struct.pm_location_t, ptr %49, i32 0, i32 0
  %51 = load ptr, ptr %50, align 8, !tbaa !58
  %52 = load ptr, ptr %4, align 8, !tbaa !7
  %53 = getelementptr inbounds nuw %struct.pm_static_literals_metadata_t, ptr %52, i32 0, i32 1
  %54 = load i32, ptr %53, align 8, !tbaa !24
  %55 = call i64 @pm_newline_list_line_column(ptr noundef %47, ptr noundef %51, i32 noundef %54)
  store i64 %55, ptr %9, align 4
  %56 = getelementptr inbounds nuw %struct.pm_line_column_t, ptr %9, i32 0, i32 0
  %57 = load i32, ptr %56, align 4, !tbaa !61
  %58 = sext i32 %57 to i64
  store i64 %58, ptr %3, align 8
  br label %60

59:                                               ; preds = %2
  store i64 0, ptr %3, align 8
  br label %60

60:                                               ; preds = %59, %44, %43
  %61 = load i64, ptr %3, align 8
  ret i64 %61
}

; Function Attrs: nounwind sspstrong uwtable
define internal i32 @pm_compare_integer_nodes(ptr noundef %0, ptr noundef %1, ptr noundef %2) #0 {
  %4 = alloca i32, align 4
  %5 = alloca ptr, align 8
  %6 = alloca ptr, align 8
  %7 = alloca ptr, align 8
  %8 = alloca i64, align 8
  %9 = alloca i64, align 8
  %10 = alloca ptr, align 8
  %11 = alloca ptr, align 8
  store ptr %0, ptr %5, align 8, !tbaa !7
  store ptr %1, ptr %6, align 8, !tbaa !13
  store ptr %2, ptr %7, align 8, !tbaa !13
  %12 = load ptr, ptr %6, align 8, !tbaa !13
  %13 = getelementptr inbounds nuw %struct.pm_node, ptr %12, i32 0, i32 0
  %14 = load i16, ptr %13, align 8, !tbaa !17
  %15 = zext i16 %14 to i32
  %16 = icmp eq i32 %15, 138
  br i1 %16, label %23, label %17

17:                                               ; preds = %3
  %18 = load ptr, ptr %7, align 8, !tbaa !13
  %19 = getelementptr inbounds nuw %struct.pm_node, ptr %18, i32 0, i32 0
  %20 = load i16, ptr %19, align 8, !tbaa !17
  %21 = zext i16 %20 to i32
  %22 = icmp eq i32 %21, 138
  br i1 %22, label %23, label %41

23:                                               ; preds = %17, %3
  call void @llvm.lifetime.start.p0(i64 8, ptr %8) #9
  %24 = load ptr, ptr %5, align 8, !tbaa !7
  %25 = load ptr, ptr %6, align 8, !tbaa !13
  %26 = call i64 @pm_int64_value(ptr noundef %24, ptr noundef %25)
  store i64 %26, ptr %8, align 8, !tbaa !42
  call void @llvm.lifetime.start.p0(i64 8, ptr %9) #9
  %27 = load ptr, ptr %5, align 8, !tbaa !7
  %28 = load ptr, ptr %7, align 8, !tbaa !13
  %29 = call i64 @pm_int64_value(ptr noundef %27, ptr noundef %28)
  store i64 %29, ptr %9, align 8, !tbaa !42
  %30 = load i64, ptr %8, align 8, !tbaa !42
  %31 = load i64, ptr %9, align 8, !tbaa !42
  %32 = icmp slt i64 %30, %31
  br i1 %32, label %33, label %34

33:                                               ; preds = %23
  br label %39

34:                                               ; preds = %23
  %35 = load i64, ptr %8, align 8, !tbaa !42
  %36 = load i64, ptr %9, align 8, !tbaa !42
  %37 = icmp sgt i64 %35, %36
  %38 = select i1 %37, i32 1, i32 0
  br label %39

39:                                               ; preds = %34, %33
  %40 = phi i32 [ -1, %33 ], [ %38, %34 ]
  store i32 %40, ptr %4, align 4
  call void @llvm.lifetime.end.p0(i64 8, ptr %9) #9
  call void @llvm.lifetime.end.p0(i64 8, ptr %8) #9
  br label %49

41:                                               ; preds = %17
  call void @llvm.lifetime.start.p0(i64 8, ptr %10) #9
  %42 = load ptr, ptr %6, align 8, !tbaa !13
  %43 = getelementptr inbounds nuw %struct.pm_integer_node, ptr %42, i32 0, i32 1
  store ptr %43, ptr %10, align 8, !tbaa !7
  call void @llvm.lifetime.start.p0(i64 8, ptr %11) #9
  %44 = load ptr, ptr %7, align 8, !tbaa !13
  %45 = getelementptr inbounds nuw %struct.pm_integer_node, ptr %44, i32 0, i32 1
  store ptr %45, ptr %11, align 8, !tbaa !7
  %46 = load ptr, ptr %10, align 8, !tbaa !7
  %47 = load ptr, ptr %11, align 8, !tbaa !7
  %48 = call i32 @pm_integer_compare(ptr noundef %46, ptr noundef %47)
  store i32 %48, ptr %4, align 4
  call void @llvm.lifetime.end.p0(i64 8, ptr %11) #9
  call void @llvm.lifetime.end.p0(i64 8, ptr %10) #9
  br label %49

49:                                               ; preds = %41, %39
  %50 = load i32, ptr %4, align 4
  ret i32 %50
}