; Function Attrs: nounwind sspstrong uwtable
define internal i32 @pm_compare_integer_nodes(ptr noundef readonly captures(none) %0, ptr noundef %1, ptr noundef %2) #0 {
  %4 = load i16, ptr %1, align 8, !tbaa !7
  %5 = icmp eq i16 %4, 138
  br i1 %5, label %pm_int64_value.exit, label %6

6:                                                ; preds = %3
  %7 = load i16, ptr %2, align 8, !tbaa !7
  %8 = icmp eq i16 %7, 138
  br i1 %8, label %9, label %59

9:                                                ; preds = %6
  %cond = icmp eq i16 %4, 82
  br i1 %cond, label %10, label %pm_int64_value.exit.thread

10:                                               ; preds = %9
  %11 = getelementptr inbounds nuw i8, ptr %1, i64 32
  %12 = load ptr, ptr %11, align 8, !tbaa !38
  %.not.i = icmp eq ptr %12, null
  br i1 %.not.i, label %18, label %13

13:                                               ; preds = %10
  %14 = getelementptr inbounds nuw i8, ptr %1, i64 44
  %15 = load i8, ptr %14, align 4, !tbaa !43, !range !44, !noundef !45
  %16 = trunc nuw i8 %15 to i1
  %17 = select i1 %16, i64 -9223372036854775808, i64 9223372036854775807
  br label %pm_int64_value.exit.thread

18:                                               ; preds = %10
  %19 = getelementptr inbounds nuw i8, ptr %1, i64 40
  %20 = load i32, ptr %19, align 8, !tbaa !46
  %21 = zext i32 %20 to i64
  %22 = getelementptr inbounds nuw i8, ptr %1, i64 44
  %23 = load i8, ptr %22, align 4, !tbaa !43, !range !44, !noundef !45
  %24 = trunc nuw i8 %23 to i1
  %25 = sub nsw i64 0, %21
  %26 = select i1 %24, i64 %25, i64 %21
  br label %pm_int64_value.exit.thread

pm_int64_value.exit:                              ; preds = %3
  %27 = load ptr, ptr %0, align 8, !tbaa !16
  %28 = getelementptr inbounds nuw i8, ptr %1, i64 8
  %29 = load ptr, ptr %28, align 8, !tbaa !47
  %30 = getelementptr inbounds nuw i8, ptr %0, i64 8
  %31 = load i32, ptr %30, align 8, !tbaa !18
  %32 = tail call i64 @pm_newline_list_line_column(ptr noundef %27, ptr noundef %29, i32 noundef %31) #9
  %sext.i = shl i64 %32, 32
  %33 = ashr exact i64 %sext.i, 32
  %.pr.pre = load i16, ptr %2, align 8, !tbaa !7
  switch i16 %.pr.pre, label %pm_int64_value.exit17 [
    i16 82, label %34
    i16 138, label %pm_int64_value.exit.thread
  ]

34:                                               ; preds = %pm_int64_value.exit
  %35 = getelementptr inbounds nuw i8, ptr %2, i64 32
  %36 = load ptr, ptr %35, align 8, !tbaa !38
  %.not.i16 = icmp eq ptr %36, null
  br i1 %.not.i16, label %42, label %37

37:                                               ; preds = %34
  %38 = getelementptr inbounds nuw i8, ptr %2, i64 44
  %39 = load i8, ptr %38, align 4, !tbaa !43, !range !44, !noundef !45
  %40 = trunc nuw i8 %39 to i1
  %41 = select i1 %40, i64 -9223372036854775808, i64 9223372036854775807
  br label %pm_int64_value.exit17

42:                                               ; preds = %34
  %43 = getelementptr inbounds nuw i8, ptr %2, i64 40
  %44 = load i32, ptr %43, align 8, !tbaa !46
  %45 = zext i32 %44 to i64
  %46 = getelementptr inbounds nuw i8, ptr %2, i64 44
  %47 = load i8, ptr %46, align 4, !tbaa !43, !range !44, !noundef !45
  %48 = trunc nuw i8 %47 to i1
  %49 = sub nsw i64 0, %45
  %50 = select i1 %48, i64 %49, i64 %45
  br label %pm_int64_value.exit17

pm_int64_value.exit.thread:                       ; preds = %13, %18, %9, %pm_int64_value.exit
  %.1.i19 = phi i64 [ %33, %pm_int64_value.exit ], [ 0, %9 ], [ %17, %13 ], [ %26, %18 ]
  %51 = load ptr, ptr %0, align 8, !tbaa !16
  %52 = getelementptr inbounds nuw i8, ptr %2, i64 8
  %53 = load ptr, ptr %52, align 8, !tbaa !47
  %54 = getelementptr inbounds nuw i8, ptr %0, i64 8
  %55 = load i32, ptr %54, align 8, !tbaa !18
  %56 = tail call i64 @pm_newline_list_line_column(ptr noundef %51, ptr noundef %53, i32 noundef %55) #9
  %sext.i14 = shl i64 %56, 32
  %57 = ashr exact i64 %sext.i14, 32
  br label %pm_int64_value.exit17

pm_int64_value.exit17:                            ; preds = %pm_int64_value.exit, %37, %42, %pm_int64_value.exit.thread
  %.1.i20 = phi i64 [ %.1.i19, %pm_int64_value.exit.thread ], [ %33, %37 ], [ %33, %42 ], [ %33, %pm_int64_value.exit ]
  %.1.i15 = phi i64 [ %57, %pm_int64_value.exit.thread ], [ %41, %37 ], [ %50, %42 ], [ 0, %pm_int64_value.exit ]
  %58 = tail call i32 @llvm.scmp.i32.i64(i64 %.1.i20, i64 %.1.i15)
  br label %63

59:                                               ; preds = %6
  %60 = getelementptr inbounds nuw i8, ptr %1, i64 24
  %61 = getelementptr inbounds nuw i8, ptr %2, i64 24
  %62 = tail call i32 @pm_integer_compare(ptr noundef nonnull %60, ptr noundef nonnull %61) #9
  br label %63

63:                                               ; preds = %59, %pm_int64_value.exit17
  %.0 = phi i32 [ %58, %pm_int64_value.exit17 ], [ %62, %59 ]
  ret i32 %.0
}